(lp0
S'MasVnrArea'
p1
aS'BsmtFinType2_dum_0'
p2
aS'Foundation_dum_2'
p3
aS'HouseStyle_dum_2'
p4
aS'Neighborhood_dum_1'
p5
aS'GarageType_dum_1'
p6
aS'LotConfig_dum_2'
p7
aS'Electrical_dum_2'
p8
aS'RoofStyle_dum_2'
p9
aS'BsmtFinType1_dum_2'
p10
aS'Heating_dum_1'
p11
aS'Condition1_dum_2'
p12
aS'Fence_dum_0'
p13
aS'EnclosedPorch'
p14
aS'Exterior1st_dum_0'
p15
aS'Alley_dum_1'
p16
aS'HeatingQC_dum_2'
p17
aS'BsmtQual_dum_0'
p18
aS'Electrical_dum_0'
p19
aS'YrSold'
p20
aS'KitchenAbvGr'
p21
aS'MoSold'
p22
aS'KitchenQual_dum_2'
p23
aS'ExterQual_dum_2'
p24
aS'GarageFinish_dum_2'
p25
aS'PoolQC_dum_2'
p26
aS'Exterior2nd_dum_4'
p27
aS'HouseStyle_dum_3'
p28
aS'Condition2_dum_3'
p29
aS'LandContour_dum_2'
p30
aS'LotShape_dum_2'
p31
aS'Exterior2nd_dum_2'
p32
aS'BsmtFinType2_dum_1'
p33
aS'Functional_dum_1'
p34
aS'Fence_dum_1'
p35
aS'ExterCond_dum_0'
p36
aS'Condition1_dum_3'
p37
aS'LowQualFinSF'
p38
aS'GarageFinish_dum_0'
p39
aS'MasVnrType_dum_0'
p40
aS'Exterior2nd_dum_1'
p41
aS'GarageCond_dum_1'
p42
aS'PavedDrive_dum_1'
p43
aS'RoofStyle_dum_1'
p44
aS'MiscFeature_dum_0'
p45
aS'SaleType_dum_3'
p46
aS'GarageQual_dum_1'
p47
aS'KitchenQual_dum_0'
p48
aS'Heating_dum_2'
p49
aS'Fence_dum_2'
p50
aS'RoofMatl_dum_0'
p51
aS'BsmtFinSF2'
p52
aS'Functional_dum_2'
p53
aS'Condition1_dum_1'
p54
aS'HouseStyle_dum_1'
p55
aS'GarageFinish_dum_1'
p56
aS'PavedDrive_dum_0'
p57
aS'MiscFeature_dum_2'
p58
aS'SaleType_dum_1'
p59
aS'BsmtCond_dum_0'
p60
aS'Functional_dum_0'
p61
aS'MSZoning_dum_2'
p62
aS'Electrical_dum_1'
p63
aS'MiscFeature_dum_1'
p64
aS'Foundation_dum_1'
p65
aS'Condition2_dum_1'
p66
aS'BsmtFinType2_dum_2'
p67
aS'LotConfig_dum_0'
p68
aS'Alley_dum_0'
p69
aS'LotConfig_dum_1'
p70
aS'BsmtExposure_dum_0'
p71
aS'GarageQual_dum_2'
p72
aS'Utilities_dum_AllPub'
p73
aS'LandContour_dum_1'
p74
aS'BldgType_dum_1'
p75
aS'ExterCond_dum_1'
p76
a.