(lp0
S'Cabin_dum_3'
p1
aS'Embarked_dum_1'
p2
aS'Ticket_dum_1'
p3
aS'Ticket_dum_3'
p4
aS'Title_dum_3'
p5
aS'Ticket_dum_4'
p6
aS'Cabin_dum_2'
p7
aS'Title_dum_2'
p8
aS'Ticket_dum_2'
p9
aS'Ticket_dum_0'
p10
a.