(dp0
S'MasVnrType'
p1
(lp2
(S'None'
p3
I0
tp4
a(S'BrkFace'
p5
I1
tp6
a(S'Stone'
p7
I10
tp8
a(S'BrkCmn'
p9
I11
tp10
a(S'Unknown'
p11
I100
tp12
asS'LotConfig'
p13
(lp14
(S'Inside'
p15
I0
tp16
a(S'Corner'
p17
I1
tp18
a(S'CulDSac'
p19
I10
tp20
a(S'FR2'
p21
I11
tp22
a(S'FR3'
p23
I100
tp24
asS'GarageQual'
p25
(lp26
(S'TA'
p27
I0
tp28
a(g11
I1
tp29
a(S'Fa'
p30
I10
tp31
a(S'Gd'
p32
I11
tp33
a(S'Ex'
p34
I100
tp35
a(S'Po'
p36
I101
tp37
asS'Exterior1st'
p38
(lp39
(S'VinylSd'
p40
I0
tp41
a(S'HdBoard'
p42
I1
tp43
a(S'MetalSd'
p44
I10
tp45
a(S'Wd Sdng'
p46
I11
tp47
a(S'Plywood'
p48
I100
tp49
a(S'CemntBd'
p50
I101
tp51
a(S'BrkFace'
p52
I110
tp53
a(S'Stucco'
p54
I111
tp55
a(S'WdShing'
p56
I1000
tp57
a(S'AsbShng'
p58
I1001
tp59
a(S'BrkComm'
p60
I1010
tp61
a(S'AsphShn'
p62
I1011
tp63
a(S'ImStucc'
p64
I1100
tp65
a(S'Stone'
p66
I1101
tp67
a(S'CBlock'
p68
I1110
tp69
asS'GarageFinish'
p70
(lp71
(S'Unf'
p72
I0
tp73
a(S'RFn'
p74
I1
tp75
a(S'Fin'
p76
I10
tp77
a(g11
I11
tp78
asS'Electrical'
p79
(lp80
(S'SBrkr'
p81
I0
tp82
a(S'FuseA'
p83
I1
tp84
a(S'FuseF'
p85
I10
tp86
a(S'FuseP'
p87
I11
tp88
a(g11
I100
tp89
asS'BsmtQual'
p90
(lp91
(S'TA'
p92
I0
tp93
a(S'Gd'
p94
I1
tp95
a(S'Ex'
p96
I10
tp97
a(S'Fa'
p98
I11
tp99
a(g11
I100
tp100
asS'HouseStyle'
p101
(lp102
(S'1Story'
p103
I0
tp104
a(S'2Story'
p105
I1
tp106
a(S'1.5Fin'
p107
I10
tp108
a(S'SLvl'
p109
I11
tp110
a(S'SFoyer'
p111
I100
tp112
a(S'1.5Unf'
p113
I101
tp114
a(S'2.5Unf'
p115
I110
tp116
a(S'2.5Fin'
p117
I111
tp118
asS'Foundation'
p119
(lp120
(S'PConc'
p121
I0
tp122
a(S'CBlock'
p123
I1
tp124
a(S'BrkTil'
p125
I10
tp126
a(S'Slab'
p127
I11
tp128
a(S'Stone'
p129
I100
tp130
a(S'Wood'
p131
I101
tp132
asS'GarageType'
p133
(lp134
(S'Attchd'
p135
I0
tp136
a(S'Detchd'
p137
I1
tp138
a(S'BuiltIn'
p139
I10
tp140
a(g11
I11
tp141
a(S'Basment'
p142
I100
tp143
a(S'CarPort'
p144
I101
tp145
a(S'2Types'
p146
I110
tp147
asS'BsmtCond'
p148
(lp149
(S'TA'
p150
I0
tp151
a(S'Gd'
p152
I1
tp153
a(S'Fa'
p154
I10
tp155
a(g11
I11
tp156
a(S'Po'
p157
I100
tp158
asS'HeatingQC'
p159
(lp160
(S'Ex'
p161
I0
tp162
a(S'TA'
p163
I1
tp164
a(S'Gd'
p165
I10
tp166
a(S'Fa'
p167
I11
tp168
a(S'Po'
p169
I100
tp170
asS'RoofStyle'
p171
(lp172
(S'Gable'
p173
I0
tp174
a(S'Hip'
p175
I1
tp176
a(S'Flat'
p177
I10
tp178
a(S'Gambrel'
p179
I11
tp180
a(S'Mansard'
p181
I100
tp182
a(S'Shed'
p183
I101
tp184
asS'CentralAir'
p185
(lp186
S'Y'
p187
asS'BsmtExposure'
p188
(lp189
(S'No'
p190
I0
tp191
a(S'Av'
p192
I1
tp193
a(S'Gd'
p194
I10
tp195
a(S'Mn'
p196
I11
tp197
a(g11
I100
tp198
asS'Utilities'
p199
(lp200
S'AllPub'
p201
asS'LotShape'
p202
(lp203
(S'Reg'
p204
I0
tp205
a(S'IR1'
p206
I1
tp207
a(S'IR2'
p208
I10
tp209
a(S'IR3'
p210
I11
tp211
asS'MiscFeature'
p212
(lp213
(g11
I0
tp214
a(S'Shed'
p215
I1
tp216
a(S'Othr'
p217
I10
tp218
a(S'Gar2'
p219
I11
tp220
a(S'TenC'
p221
I100
tp222
asS'PavedDrive'
p223
(lp224
(g187
I0
tp225
a(S'N'
p226
I1
tp227
a(S'P'
p228
I10
tp229
asS'LandSlope'
p230
(lp231
(S'Gtl'
p232
I0
tp233
a(S'Mod'
p234
I1
tp235
a(S'Sev'
p236
I10
tp237
asS'SaleType'
p238
(lp239
(S'WD'
p240
I0
tp241
a(S'New'
p242
I1
tp243
a(S'COD'
p244
I10
tp245
a(S'ConLD'
p246
I11
tp247
a(S'ConLw'
p248
I100
tp249
a(S'CWD'
p250
I101
tp251
a(S'ConLI'
p252
I110
tp253
a(S'Con'
p254
I111
tp255
a(S'Oth'
p256
I1000
tp257
asS'MSZoning'
p258
(lp259
(S'RL'
p260
I0
tp261
a(S'RM'
p262
I1
tp263
a(S'FV'
p264
I10
tp265
a(S'RH'
p266
I11
tp267
a(S'C (all)'
p268
I100
tp269
asS'Exterior2nd'
p270
(lp271
(S'VinylSd'
p272
I0
tp273
a(S'Wd Sdng'
p274
I1
tp275
a(S'MetalSd'
p276
I10
tp277
a(S'HdBoard'
p278
I11
tp279
a(S'Plywood'
p280
I100
tp281
a(S'CmentBd'
p282
I101
tp283
a(S'Wd Shng'
p284
I110
tp285
a(S'Stucco'
p286
I111
tp287
a(S'AsbShng'
p288
I1000
tp289
a(S'BrkFace'
p290
I1001
tp291
a(S'Brk Cmn'
p292
I1010
tp293
a(S'ImStucc'
p294
I1011
tp295
a(S'AsphShn'
p296
I1100
tp297
a(S'Stone'
p298
I1101
tp299
a(S'CBlock'
p300
I1110
tp301
a(S'Other'
p302
I1111
tp303
asS'Heating'
p304
(lp305
(S'GasA'
p306
I0
tp307
a(S'GasW'
p308
I1
tp309
a(S'Grav'
p310
I10
tp311
a(S'Wall'
p312
I11
tp313
a(S'OthW'
p314
I100
tp315
a(S'Floor'
p316
I101
tp317
asS'RoofMatl'
p318
(lp319
(S'CompShg'
p320
I0
tp321
a(S'Tar&Grv'
p322
I1
tp323
a(S'WdShngl'
p324
I10
tp325
a(S'WdShake'
p326
I11
tp327
a(S'Metal'
p328
I100
tp329
a(S'ClyTile'
p330
I101
tp331
a(S'Roll'
p332
I110
tp333
asS'FireplaceQu'
p334
(lp335
(g11
I0
tp336
a(S'Gd'
p337
I1
tp338
a(S'TA'
p339
I10
tp340
a(S'Fa'
p341
I11
tp342
a(S'Ex'
p343
I100
tp344
a(S'Po'
p345
I101
tp346
asS'KitchenQual'
p347
(lp348
(S'TA'
p349
I0
tp350
a(S'Gd'
p351
I1
tp352
a(S'Ex'
p353
I10
tp354
a(S'Fa'
p355
I11
tp356
asS'BsmtFinType2'
p357
(lp358
(S'Unf'
p359
I0
tp360
a(S'Rec'
p361
I1
tp362
a(S'LwQ'
p363
I10
tp364
a(g11
I11
tp365
a(S'BLQ'
p366
I100
tp367
a(S'ALQ'
p368
I101
tp369
a(S'GLQ'
p370
I110
tp371
asS'BsmtFinType1'
p372
(lp373
(S'Unf'
p374
I0
tp375
a(S'GLQ'
p376
I1
tp377
a(S'ALQ'
p378
I10
tp379
a(S'BLQ'
p380
I11
tp381
a(S'Rec'
p382
I100
tp383
a(S'LwQ'
p384
I101
tp385
a(g11
I110
tp386
asS'Condition2'
p387
(lp388
(S'Norm'
p389
I0
tp390
a(S'Feedr'
p391
I1
tp392
a(S'Artery'
p393
I10
tp394
a(S'PosN'
p395
I11
tp396
a(S'RRAn'
p397
I100
tp398
a(S'RRAe'
p399
I101
tp400
a(S'PosA'
p401
I110
tp402
a(S'RRNn'
p403
I111
tp404
asS'Condition1'
p405
(lp406
(S'Norm'
p407
I0
tp408
a(S'Feedr'
p409
I1
tp410
a(S'Artery'
p411
I10
tp412
a(S'RRAn'
p413
I11
tp414
a(S'PosN'
p415
I100
tp416
a(S'RRAe'
p417
I101
tp418
a(S'PosA'
p419
I110
tp420
a(S'RRNn'
p421
I111
tp422
a(S'RRNe'
p423
I1000
tp424
asS'GarageCond'
p425
(lp426
(S'TA'
p427
I0
tp428
a(g11
I1
tp429
a(S'Fa'
p430
I10
tp431
a(S'Gd'
p432
I11
tp433
a(S'Po'
p434
I100
tp435
a(S'Ex'
p436
I101
tp437
asS'LandContour'
p438
(lp439
(S'Lvl'
p440
I0
tp441
a(S'Bnk'
p442
I1
tp443
a(S'HLS'
p444
I10
tp445
a(S'Low'
p446
I11
tp447
asS'Neighborhood'
p448
(lp449
(S'NAmes'
p450
I0
tp451
a(S'CollgCr'
p452
I1
tp453
a(S'OldTown'
p454
I10
tp455
a(S'Edwards'
p456
I11
tp457
a(S'Somerst'
p458
I100
tp459
a(S'NWAmes'
p460
I101
tp461
a(S'Gilbert'
p462
I110
tp463
a(S'NridgHt'
p464
I111
tp465
a(S'Sawyer'
p466
I1000
tp467
a(S'BrkSide'
p468
I1001
tp469
a(S'Crawfor'
p470
I1010
tp471
a(S'SawyerW'
p472
I1011
tp473
a(S'Mitchel'
p474
I1100
tp475
a(S'NoRidge'
p476
I1101
tp477
a(S'Timber'
p478
I1110
tp479
a(S'IDOTRR'
p480
I1111
tp481
a(S'SWISU'
p482
I10000
tp483
a(S'StoneBr'
p484
I10001
tp485
a(S'ClearCr'
p486
I10010
tp487
a(S'Blmngtn'
p488
I10011
tp489
a(S'BrDale'
p490
I10100
tp491
a(S'MeadowV'
p492
I10101
tp493
a(S'Veenker'
p494
I10110
tp495
a(S'NPkVill'
p496
I10111
tp497
a(S'Blueste'
p498
I11000
tp499
asS'Fence'
p500
(lp501
(g11
I0
tp502
a(S'MnPrv'
p503
I1
tp504
a(S'GdPrv'
p505
I10
tp506
a(S'GdWo'
p507
I11
tp508
a(S'MnWw'
p509
I100
tp510
asS'SaleCondition'
p511
(lp512
(S'Normal'
p513
I0
tp514
a(S'Partial'
p515
I1
tp516
a(S'Abnorml'
p517
I10
tp518
a(S'Family'
p519
I11
tp520
a(S'Alloca'
p521
I100
tp522
a(S'AdjLand'
p523
I101
tp524
asS'ExterCond'
p525
(lp526
(S'TA'
p527
I0
tp528
a(S'Gd'
p529
I1
tp530
a(S'Fa'
p531
I10
tp532
a(S'Ex'
p533
I11
tp534
a(S'Po'
p535
I100
tp536
asS'ExterQual'
p537
(lp538
(S'TA'
p539
I0
tp540
a(S'Gd'
p541
I1
tp542
a(S'Ex'
p543
I10
tp544
a(S'Fa'
p545
I11
tp546
asS'Functional'
p547
(lp548
(S'Typ'
p549
I0
tp550
a(S'Min2'
p551
I1
tp552
a(S'Min1'
p553
I10
tp554
a(S'Mod'
p555
I11
tp556
a(S'Maj1'
p557
I100
tp558
a(S'Maj2'
p559
I101
tp560
a(S'Sev'
p561
I110
tp562
asS'Alley'
p563
(lp564
(g11
I0
tp565
a(S'Grvl'
p566
I1
tp567
a(S'Pave'
p568
I10
tp569
asS'Street'
p570
(lp571
S'Pave'
p572
asS'BldgType'
p573
(lp574
(S'1Fam'
p575
I0
tp576
a(S'TwnhsE'
p577
I1
tp578
a(S'Duplex'
p579
I10
tp580
a(S'Twnhs'
p581
I11
tp582
a(S'2fmCon'
p583
I100
tp584
asS'PoolQC'
p585
(lp586
(g11
I0
tp587
a(S'Ex'
p588
I1
tp589
a(S'Gd'
p590
I10
tp591
a(S'Fa'
p592
I11
tp593
as.