(dp0
S'Title'
p1
(lp2
(S'Mr'
p3
I0
tp4
a(S'Miss'
p5
I1
tp6
a(S'Mrs'
p7
I10
tp8
a(S'Master'
p9
I11
tp10
a(S'Dr'
p11
I100
tp12
a(S'Rev'
p13
I101
tp14
a(S'Major'
p15
I110
tp16
a(S'Col'
p17
I111
tp18
a(S'Mlle'
p19
I1000
tp20
a(S'Countess'
p21
I1001
tp22
a(S'Ms'
p23
I1010
tp24
a(S'Lady'
p25
I1011
tp26
a(S'Mme'
p27
I1100
tp28
a(S'Capt'
p29
I1101
tp30
asS'Embarked'
p31
(lp32
(S'S'
p33
I0
tp34
a(S'C'
p35
I1
tp36
a(S'Q'
p37
I10
tp38
a(S'Unknown'
p39
I11
tp40
asS'Pclass'
p41
(lp42
S'3 class'
p43
aS'1 class'
p44
asS'Sex'
p45
(lp46
S'male'
p47
asS'Ticket'
p48
(lp49
(g39
I0
tp50
a(S'PC'
p51
I1
tp52
a(S'CA'
p53
I10
tp54
a(S'A'
p55
I11
tp56
a(S'STONO'
p57
I100
tp58
a(S'SOTONOQ'
p59
I101
tp60
a(S'SCPARIS'
p61
I110
tp62
a(S'WC'
p63
I111
tp64
a(g35
I1000
tp65
a(S'LINE'
p66
I1001
tp67
a(S'FCC'
p68
I1010
tp69
a(S'SOC'
p70
I1011
tp71
a(S'WEP'
p72
I1100
tp73
a(S'SCParis'
p74
I1101
tp75
a(S'PPP'
p76
I1110
tp77
a(S'SOPP'
p78
I1111
tp79
a(S'PP'
p80
I10000
tp81
a(S'SWPP'
p82
I10001
tp83
a(S'FC'
p84
I10010
tp85
a(S'SC'
p86
I10011
tp87
a(S'SCAH'
p88
I10100
tp89
a(S'SCA'
p90
I10101
tp91
a(S'SOP'
p92
I10110
tp93
a(S'Fa'
p94
I10111
tp95
a(S'CASOTON'
p96
I11000
tp97
a(S'AS'
p98
I11001
tp99
a(S'SOTONO'
p100
I11010
tp101
a(S'SCOW'
p102
I11011
tp103
a(S'SCAHBasle'
p104
I11100
tp105
asS'Cabin'
p106
(lp107
(S'n'
p108
I0
tp109
a(g35
I1
tp110
a(S'B'
p111
I10
tp112
a(S'E'
p113
I11
tp114
a(S'D'
p115
I100
tp116
a(S'F'
p117
I101
tp118
a(g55
I110
tp119
a(S'G'
p120
I111
tp121
a(S'T'
p122
I1000
tp123
as.