(lp0
S'MSZoning_dum_0'
p1
aS'MSZoning_dum_1'
p2
aS'Street_dum_Pave'
p3
aS'LotShape_dum_0'
p4
aS'LotShape_dum_1'
p5
aS'LandContour_dum_0'
p6
aS'LandSlope_dum_0'
p7
aS'LandSlope_dum_1'
p8
aS'Neighborhood_dum_0'
p9
aS'Neighborhood_dum_2'
p10
aS'Neighborhood_dum_3'
p11
aS'Neighborhood_dum_4'
p12
aS'Condition1_dum_0'
p13
aS'Condition2_dum_0'
p14
aS'Condition2_dum_2'
p15
aS'BldgType_dum_0'
p16
aS'BldgType_dum_2'
p17
aS'HouseStyle_dum_0'
p18
aS'RoofStyle_dum_0'
p19
aS'RoofMatl_dum_1'
p20
aS'RoofMatl_dum_2'
p21
aS'Exterior1st_dum_1'
p22
aS'Exterior1st_dum_3'
p23
aS'Exterior2nd_dum_3'
p24
aS'MasVnrType_dum_1'
p25
aS'ExterQual_dum_0'
p26
aS'ExterQual_dum_1'
p27
aS'ExterCond_dum_2'
p28
aS'BsmtQual_dum_1'
p29
aS'BsmtCond_dum_1'
p30
aS'BsmtCond_dum_2'
p31
aS'BsmtExposure_dum_1'
p32
aS'BsmtFinType1_dum_0'
p33
aS'BsmtFinType1_dum_1'
p34
aS'Heating_dum_0'
p35
aS'HeatingQC_dum_0'
p36
aS'HeatingQC_dum_1'
p37
aS'CentralAir_dum_Y'
p38
aS'KitchenQual_dum_1'
p39
aS'FireplaceQu_dum_0'
p40
aS'FireplaceQu_dum_1'
p41
aS'FireplaceQu_dum_2'
p42
aS'GarageType_dum_0'
p43
aS'GarageType_dum_2'
p44
aS'PoolQC_dum_0'
p45
aS'PoolQC_dum_1'
p46
aS'SaleType_dum_2'
p47
aS'SaleCondition_dum_0'
p48
aS'SaleCondition_dum_1'
p49
aS'SaleCondition_dum_2'
p50
a.