(lp0
S'Pclass_dum_3 class'
p1
aS'Pclass_dum_1 class'
p2
aS'Sex_dum_male'
p3
aS'Ticket_dum_0'
p4
aS'Ticket_dum_1'
p5
aS'Ticket_dum_2'
p6
aS'Ticket_dum_3'
p7
aS'Ticket_dum_4'
p8
aS'Cabin_dum_0'
p9
aS'Cabin_dum_1'
p10
aS'Cabin_dum_2'
p11
aS'Cabin_dum_3'
p12
aS'Embarked_dum_0'
p13
aS'Embarked_dum_1'
p14
aS'Embarked_dum_2'
p15
aS'Title_dum_0'
p16
aS'Title_dum_1'
p17
aS'Title_dum_2'
p18
aS'Title_dum_3'
p19
a.