(lp0
S'MSZoning_dum_0'
p1
aS'MSZoning_dum_1'
p2
aS'MSZoning_dum_2'
p3
aS'Street_dum_Pave'
p4
aS'Alley_dum_0'
p5
aS'Alley_dum_1'
p6
aS'LotShape_dum_0'
p7
aS'LotShape_dum_1'
p8
aS'LotShape_dum_2'
p9
aS'LandContour_dum_0'
p10
aS'LandContour_dum_1'
p11
aS'LandContour_dum_2'
p12
aS'Utilities_dum_AllPub'
p13
aS'LotConfig_dum_0'
p14
aS'LotConfig_dum_1'
p15
aS'LotConfig_dum_2'
p16
aS'LandSlope_dum_0'
p17
aS'LandSlope_dum_1'
p18
aS'Neighborhood_dum_0'
p19
aS'Neighborhood_dum_1'
p20
aS'Neighborhood_dum_2'
p21
aS'Neighborhood_dum_3'
p22
aS'Neighborhood_dum_4'
p23
aS'Condition1_dum_0'
p24
aS'Condition1_dum_1'
p25
aS'Condition1_dum_2'
p26
aS'Condition1_dum_3'
p27
aS'Condition2_dum_0'
p28
aS'Condition2_dum_1'
p29
aS'Condition2_dum_2'
p30
aS'Condition2_dum_3'
p31
aS'BldgType_dum_0'
p32
aS'BldgType_dum_1'
p33
aS'BldgType_dum_2'
p34
aS'HouseStyle_dum_0'
p35
aS'HouseStyle_dum_1'
p36
aS'HouseStyle_dum_2'
p37
aS'HouseStyle_dum_3'
p38
aS'RoofStyle_dum_0'
p39
aS'RoofStyle_dum_1'
p40
aS'RoofStyle_dum_2'
p41
aS'RoofMatl_dum_0'
p42
aS'RoofMatl_dum_1'
p43
aS'RoofMatl_dum_2'
p44
aS'Exterior1st_dum_0'
p45
aS'Exterior1st_dum_1'
p46
aS'Exterior1st_dum_2'
p47
aS'Exterior1st_dum_3'
p48
aS'Exterior2nd_dum_0'
p49
aS'Exterior2nd_dum_1'
p50
aS'Exterior2nd_dum_2'
p51
aS'Exterior2nd_dum_3'
p52
aS'Exterior2nd_dum_4'
p53
aS'MasVnrType_dum_0'
p54
aS'MasVnrType_dum_1'
p55
aS'MasVnrType_dum_2'
p56
aS'ExterQual_dum_0'
p57
aS'ExterQual_dum_1'
p58
aS'ExterQual_dum_2'
p59
aS'ExterCond_dum_0'
p60
aS'ExterCond_dum_1'
p61
aS'ExterCond_dum_2'
p62
aS'Foundation_dum_0'
p63
aS'Foundation_dum_1'
p64
aS'Foundation_dum_2'
p65
aS'BsmtQual_dum_0'
p66
aS'BsmtQual_dum_1'
p67
aS'BsmtQual_dum_2'
p68
aS'BsmtCond_dum_0'
p69
aS'BsmtCond_dum_1'
p70
aS'BsmtCond_dum_2'
p71
aS'BsmtExposure_dum_0'
p72
aS'BsmtExposure_dum_1'
p73
aS'BsmtExposure_dum_2'
p74
aS'BsmtFinType1_dum_0'
p75
aS'BsmtFinType1_dum_1'
p76
aS'BsmtFinType1_dum_2'
p77
aS'BsmtFinType2_dum_0'
p78
aS'BsmtFinType2_dum_1'
p79
aS'BsmtFinType2_dum_2'
p80
aS'Heating_dum_0'
p81
aS'Heating_dum_1'
p82
aS'Heating_dum_2'
p83
aS'HeatingQC_dum_0'
p84
aS'HeatingQC_dum_1'
p85
aS'HeatingQC_dum_2'
p86
aS'CentralAir_dum_Y'
p87
aS'Electrical_dum_0'
p88
aS'Electrical_dum_1'
p89
aS'Electrical_dum_2'
p90
aS'KitchenQual_dum_0'
p91
aS'KitchenQual_dum_1'
p92
aS'KitchenQual_dum_2'
p93
aS'Functional_dum_0'
p94
aS'Functional_dum_1'
p95
aS'Functional_dum_2'
p96
aS'FireplaceQu_dum_0'
p97
aS'FireplaceQu_dum_1'
p98
aS'FireplaceQu_dum_2'
p99
aS'GarageType_dum_0'
p100
aS'GarageType_dum_1'
p101
aS'GarageType_dum_2'
p102
aS'GarageFinish_dum_0'
p103
aS'GarageFinish_dum_1'
p104
aS'GarageFinish_dum_2'
p105
aS'GarageQual_dum_0'
p106
aS'GarageQual_dum_1'
p107
aS'GarageQual_dum_2'
p108
aS'GarageCond_dum_0'
p109
aS'GarageCond_dum_1'
p110
aS'GarageCond_dum_2'
p111
aS'PavedDrive_dum_0'
p112
aS'PavedDrive_dum_1'
p113
aS'PoolQC_dum_0'
p114
aS'PoolQC_dum_1'
p115
aS'PoolQC_dum_2'
p116
aS'Fence_dum_0'
p117
aS'Fence_dum_1'
p118
aS'Fence_dum_2'
p119
aS'MiscFeature_dum_0'
p120
aS'MiscFeature_dum_1'
p121
aS'MiscFeature_dum_2'
p122
aS'SaleType_dum_0'
p123
aS'SaleType_dum_1'
p124
aS'SaleType_dum_2'
p125
aS'SaleType_dum_3'
p126
aS'SaleCondition_dum_0'
p127
aS'SaleCondition_dum_1'
p128
aS'SaleCondition_dum_2'
p129
a.