cpandas.core.indexes.base
_new_Index
p0
(cpandas.core.indexes.base
Index
p1
(dp2
S'data'
p3
cnumpy.core.multiarray
_reconstruct
p4
(cnumpy
ndarray
p5
(I0
tp6
S'b'
p7
tp8
Rp9
(I1
(I9
tp10
cnumpy
dtype
p11
(S'O8'
p12
I0
I1
tp13
Rp14
(I3
S'|'
p15
NNNI-1
I-1
I63
tp16
bI00
(lp17
S'SibSp'
p18
aS'Parch'
p19
aS'Fare'
p20
aS'Sex_dum_male'
p21
aS'Cabin_dum_0'
p22
aS'Cabin_dum_1'
p23
aS'Embarked_dum_0'
p24
aS'Title_dum_0'
p25
aS'Title_dum_1'
p26
atp27
bsS'name'
p28
Nstp29
Rp30
.