cpandas.core.indexes.base
_new_Index
p0
(cpandas.core.indexes.base
Index
p1
(dp2
S'data'
p3
cnumpy.core.multiarray
_reconstruct
p4
(cnumpy
ndarray
p5
(I0
tp6
S'b'
p7
tp8
Rp9
(I1
(I61
tp10
cnumpy
dtype
p11
(S'O8'
p12
I0
I1
tp13
Rp14
(I3
S'|'
p15
NNNI-1
I-1
I63
tp16
bI00
(lp17
S'OverallCond'
p18
aS'BsmtUnfSF'
p19
aS'BsmtFullBath'
p20
aS'BsmtHalfBath'
p21
aS'HalfBath'
p22
aS'BedroomAbvGr'
p23
aS'GarageCars'
p24
aS'WoodDeckSF'
p25
aS'OpenPorchSF'
p26
aS'3SsnPorch'
p27
aS'ScreenPorch'
p28
aS'MSZoning_dum_0'
p29
aS'MSZoning_dum_1'
p30
aS'Street_dum_Pave'
p31
aS'LotShape_dum_0'
p32
aS'LotShape_dum_1'
p33
aS'LandContour_dum_0'
p34
aS'LandSlope_dum_0'
p35
aS'LandSlope_dum_1'
p36
aS'Neighborhood_dum_0'
p37
aS'Neighborhood_dum_2'
p38
aS'Neighborhood_dum_3'
p39
aS'Neighborhood_dum_4'
p40
aS'Condition1_dum_0'
p41
aS'Condition2_dum_0'
p42
aS'Condition2_dum_2'
p43
aS'BldgType_dum_0'
p44
aS'BldgType_dum_2'
p45
aS'HouseStyle_dum_0'
p46
aS'RoofStyle_dum_0'
p47
aS'RoofMatl_dum_1'
p48
aS'RoofMatl_dum_2'
p49
aS'Exterior1st_dum_1'
p50
aS'Exterior1st_dum_3'
p51
aS'Exterior2nd_dum_3'
p52
aS'MasVnrType_dum_1'
p53
aS'ExterQual_dum_0'
p54
aS'ExterQual_dum_1'
p55
aS'ExterCond_dum_2'
p56
aS'BsmtQual_dum_1'
p57
aS'BsmtCond_dum_1'
p58
aS'BsmtCond_dum_2'
p59
aS'BsmtExposure_dum_1'
p60
aS'BsmtFinType1_dum_0'
p61
aS'BsmtFinType1_dum_1'
p62
aS'Heating_dum_0'
p63
aS'HeatingQC_dum_0'
p64
aS'HeatingQC_dum_1'
p65
aS'CentralAir_dum_Y'
p66
aS'KitchenQual_dum_1'
p67
aS'FireplaceQu_dum_0'
p68
aS'FireplaceQu_dum_1'
p69
aS'FireplaceQu_dum_2'
p70
aS'GarageType_dum_0'
p71
aS'GarageType_dum_2'
p72
aS'PoolQC_dum_0'
p73
aS'PoolQC_dum_1'
p74
aS'SaleType_dum_2'
p75
aS'SaleCondition_dum_0'
p76
aS'SaleCondition_dum_1'
p77
aS'SaleCondition_dum_2'
p78
atp79
bsS'name'
p80
Nstp81
Rp82
.