(lp0
S'3SsnPorch'
p1
aS'BsmtUnfSF'
p2
aS'ScreenPorch'
p3
aS'BsmtFullBath'
p4
aS'OpenPorchSF'
p5
aS'HalfBath'
p6
aS'OverallCond'
p7
aS'BsmtHalfBath'
p8
aS'SalePrice'
p9
aS'GarageCars'
p10
aS'BedroomAbvGr'
p11
aS'WoodDeckSF'
p12
a.