(lp0
S'MasVnrType_dum_2'
p1
aS'GarageYrBlt'
p2
aS'BsmtQual_dum_2'
p3
aS'LotFrontage'
p4
aS'MiscVal'
p5
aS'GrLivArea'
p6
aS'PoolArea'
p7
aS'MSSubClass'
p8
aS'TotalBsmtSF'
p9
aS'Fireplaces'
p10
aS'YearBuilt'
p11
aS'GarageCond_dum_0'
p12
aS'1stFlrSF'
p13
aS'GarageArea'
p14
aS'Exterior2nd_dum_0'
p15
aS'SaleType_dum_0'
p16
aS'BsmtFinSF1'
p17
aS'BsmtExposure_dum_2'
p18
aS'TotRmsAbvGrd'
p19
aS'OverallQual'
p20
aS'LotArea'
p21
aS'GarageQual_dum_0'
p22
aS'2ndFlrSF'
p23
aS'Foundation_dum_0'
p24
aS'Exterior1st_dum_2'
p25
aS'YearRemodAdd'
p26
aS'FullBath'
p27
aS'GarageCond_dum_2'
p28
a.