ccopy_reg
_reconstructor
p0
(csklearn.linear_model.logistic
LogisticRegression
p1
c__builtin__
object
p2
Ntp3
Rp4
(dp5
S'warm_start'
p6
I00
sS'C'
p7
cnumpy.core.multiarray
scalar
p8
(cnumpy
dtype
p9
(S'f8'
p10
I0
I1
tp11
Rp12
(I3
S'<'
p13
NNNI-1
I-1
I0
tp14
bS'\x9a\x99\x99\x99\x99\x99\xb9?'
p15
tp16
Rp17
sS'n_jobs'
p18
I1
sS'verbose'
p19
I0
sS'fit_intercept'
p20
I01
sS'solver'
p21
S'lbfgs'
p22
sS'classes_'
p23
cnumpy.core.multiarray
_reconstruct
p24
(cnumpy
ndarray
p25
(I0
tp26
S'b'
p27
tp28
Rp29
(I1
(I2
tp30
g9
(S'i8'
p31
I0
I1
tp32
Rp33
(I3
S'<'
p34
NNNI-1
I-1
I0
tp35
bI00
S'\x00\x00\x00\x00\x00\x00\x00\x00\x01\x00\x00\x00\x00\x00\x00\x00'
p36
tp37
bsS'n_iter_'
p38
g24
(g25
(I0
tp39
g27
tp40
Rp41
(I1
(I1
tp42
g9
(S'i4'
p43
I0
I1
tp44
Rp45
(I3
S'<'
p46
NNNI-1
I-1
I0
tp47
bI00
S'\t\x00\x00\x00'
p48
tp49
bsS'intercept_scaling'
p50
I1
sS'penalty'
p51
S'l2'
p52
sS'multi_class'
p53
S'ovr'
p54
sS'random_state'
p55
NsS'_sklearn_version'
p56
S'0.19.1'
p57
sS'dual'
p58
I00
sS'tol'
p59
F0.0001
sS'coef_'
p60
g24
(g25
(I0
tp61
g27
tp62
Rp63
(I1
(I1
I7
tp64
g12
I00
S'?\xe9\x05@5\xc9\xe7?#\xaa\x11s\x96@\xdc?x\x91yf8\xc0\xe4\xbf\x94A\x10\x04\xa4\x83\xe4?cm\xe0Z\xf6\xae\xd8\xbf\xaa\xa9b\xe1E9\xb2\xbfIB\x1b\xe2\x0c\xdb\xb1?'
p65
tp66
bsS'intercept_'
p67
g24
(g25
(I0
tp68
g27
tp69
Rp70
(I1
(I1
tp71
g12
I00
S'[\xc9\xeb\xe1|\xd7\xe4\xbf'
p72
tp73
bsS'max_iter'
p74
I1000
sS'class_weight'
p75
Nsb.